; Function Attrs: mustprogress uwtable
define dso_local void @_ZN21btSimpleDynamicsWorld10setGravityERK9btVector3(ptr nocapture noundef nonnull align 8 dereferenceable(308) %this, ptr noundef nonnull align 4 dereferenceable(16) %gravity) unnamed_addr #1 align 2 {
entry:
  %m_gravity = getelementptr inbounds i8, ptr %this, i64 292
  tail call void @llvm.memcpy.p0.p0.i64(ptr noundef nonnull align 4 dereferenceable(16) %m_gravity, ptr noundef nonnull align 4 dereferenceable(16) %gravity, i64 16, i1 false)
  %m_size.i = getelementptr inbounds i8, ptr %this, i64 12
  %0 = load i32, ptr %m_size.i, align 4
  %cmp6 = icmp sgt i32 %0, 0
  br i1 %cmp6, label %for.body.lr.ph, label %for.end

for.body.lr.ph:                                   ; preds = %entry
  %m_data.i = getelementptr inbounds i8, ptr %this, i64 24
  br label %for.body

for.body:                                         ; preds = %for.body.lr.ph, %for.inc
  %1 = phi i32 [ %0, %for.body.lr.ph ], [ %5, %for.inc ]
  %indvars.iv = phi i64 [ 0, %for.body.lr.ph ], [ %indvars.iv.next, %for.inc ]
  %2 = load ptr, ptr %m_data.i, align 8
  %arrayidx.i = getelementptr inbounds ptr, ptr %2, i64 %indvars.iv
  %3 = load ptr, ptr %arrayidx.i, align 8
  %m_internalType.i.i = getelementptr inbounds i8, ptr %3, i64 272
  %4 = load i32, ptr %m_internalType.i.i, align 8
  %and.i = and i32 %4, 2
  %tobool.not.i = icmp eq i32 %and.i, 0
  %tobool.not5 = icmp eq ptr %3, null
  %tobool.not = or i1 %tobool.not5, %tobool.not.i
  br i1 %tobool.not, label %for.inc, label %if.then

if.then:                                          ; preds = %for.body
  tail call void @_ZN11btRigidBody10setGravityERK9btVector3(ptr noundef nonnull align 8 dereferenceable(744) %3, ptr noundef nonnull align 4 dereferenceable(16) %gravity)
  %.pre = load i32, ptr %m_size.i, align 4
  br label %for.inc

for.inc:                                          ; preds = %for.body, %if.then
  %5 = phi i32 [ %1, %for.body ], [ %.pre, %if.then ]
  %indvars.iv.next = add nuw nsw i64 %indvars.iv, 1
  %6 = sext i32 %5 to i64
  %cmp = icmp slt i64 %indvars.iv.next, %6
  br i1 %cmp, label %for.body, label %for.end, !llvm.loop !9

for.end:                                          ; preds = %for.inc, %entry
  ret void
}